target datalayout = "e-m:e-p270:32:32-p271:32:32-p272:64:64-i64:64-i128:128-f80:128-n8:16:32:64-S128"
target triple = "x86_64-pc-linux-gnu"

%"struct.pkpy::Str" = type { i32, i8, ptr, [16 x i8] }
%"class.std::basic_string_view" = type { i64, ptr }

; Function Attrs: mustprogress nounwind uwtable
define linkonce_odr noundef nonnull align 1 dereferenceable(1) ptr @_ZNKSt17basic_string_viewIcSt11char_traitsIcEEixEm(ptr noundef nonnull align 8 dereferenceable(16) %0, i64 noundef %1) #5 comdat align 2 {
  %3 = alloca ptr, align 8
  %4 = alloca i64, align 8
  store ptr %0, ptr %3, align 8
  store i64 %1, ptr %4, align 8
  %5 = load ptr, ptr %3, align 8
  br label %6

6:                                                ; preds = %2
  br label %7

7:                                                ; preds = %6
  br label %8

8:                                                ; preds = %7
  %9 = getelementptr inbounds %"class.std::basic_string_view", ptr %5, i32 0, i32 1
  %10 = load ptr, ptr %9, align 8
  %11 = load i64, ptr %4, align 8
  %12 = getelementptr inbounds i8, ptr %10, i64 %11
  ret ptr %12
}

; Function Attrs: mustprogress nounwind uwtable
define linkonce_odr noundef i64 @_ZNKSt17basic_string_viewIcSt11char_traitsIcEE4sizeEv(ptr noundef nonnull align 8 dereferenceable(16) %0) #5 comdat align 2 {
  %2 = alloca ptr, align 8
  store ptr %0, ptr %2, align 8
  %3 = load ptr, ptr %2, align 8
  %4 = getelementptr inbounds %"class.std::basic_string_view", ptr %3, i32 0, i32 0
  %5 = load i64, ptr %4, align 8
  ret i64 %5
}

; Function Attrs: mustprogress nounwind uwtable
define void @_ZN4pkpy3StrC2ESt17basic_string_viewIcSt11char_traitsIcEE(ptr noundef nonnull align 8 dereferenceable(32) %0, i64 %1, ptr %2) unnamed_addr #5 align 2 {
  %4 = alloca %"class.std::basic_string_view", align 8
  %5 = alloca ptr, align 8
  %6 = alloca i32, align 4
  %7 = getelementptr inbounds { i64, ptr }, ptr %4, i32 0, i32 0
  store i64 %1, ptr %7, align 8
  %8 = getelementptr inbounds { i64, ptr }, ptr %4, i32 0, i32 1
  store ptr %2, ptr %8, align 8
  store ptr %0, ptr %5, align 8
  %9 = load ptr, ptr %5, align 8
  %10 = getelementptr inbounds %"struct.pkpy::Str", ptr %9, i32 0, i32 0
  %11 = call noundef i64 @_ZNKSt17basic_string_viewIcSt11char_traitsIcEE4sizeEv(ptr noundef nonnull align 8 dereferenceable(16) %4) #3
  %12 = trunc i64 %11 to i32
  store i32 %12, ptr %10, align 8
  %13 = getelementptr inbounds %"struct.pkpy::Str", ptr %9, i32 0, i32 1
  store i8 1, ptr %13, align 4
  %14 = getelementptr inbounds %"struct.pkpy::Str", ptr %9, i32 0, i32 0
  %15 = load i32, ptr %14, align 8
  %16 = icmp slt i32 %15, 16
  br i1 %16, label %17, label %21

17:                                               ; preds = %3
  %18 = getelementptr inbounds %"struct.pkpy::Str", ptr %9, i32 0, i32 3
  %19 = getelementptr inbounds [16 x i8], ptr %18, i64 0, i64 0
  %20 = getelementptr inbounds %"struct.pkpy::Str", ptr %9, i32 0, i32 2
  store ptr %19, ptr %20, align 8
  br label %28

21:                                               ; preds = %3
  %22 = getelementptr inbounds %"struct.pkpy::Str", ptr %9, i32 0, i32 0
  %23 = load i32, ptr %22, align 8
  %24 = add nsw i32 %23, 1
  %25 = sext i32 %24 to i64
  %26 = call noundef ptr @_ZN4pkpy12pool64_allocEm(i64 noundef %25) #3
  %27 = getelementptr inbounds %"struct.pkpy::Str", ptr %9, i32 0, i32 2
  store ptr %26, ptr %27, align 8
  br label %28

28:                                               ; preds = %21, %17
  store i32 0, ptr %6, align 4
  br label %29

29:                                               ; preds = %54, %28
  %30 = load i32, ptr %6, align 4
  %31 = getelementptr inbounds %"struct.pkpy::Str", ptr %9, i32 0, i32 0
  %32 = load i32, ptr %31, align 8
  %33 = icmp slt i32 %30, %32
  br i1 %33, label %34, label %57

34:                                               ; preds = %29
  %35 = load i32, ptr %6, align 4
  %36 = sext i32 %35 to i64
  %37 = call noundef nonnull align 1 dereferenceable(1) ptr @_ZNKSt17basic_string_viewIcSt11char_traitsIcEEixEm(ptr noundef nonnull align 8 dereferenceable(16) %4, i64 noundef %36) #3
  %38 = load i8, ptr %37, align 1
  %39 = getelementptr inbounds %"struct.pkpy::Str", ptr %9, i32 0, i32 2
  %40 = load ptr, ptr %39, align 8
  %41 = load i32, ptr %6, align 4
  %42 = sext i32 %41 to i64
  %43 = getelementptr inbounds i8, ptr %40, i64 %42
  store i8 %38, ptr %43, align 1
  %44 = load i32, ptr %6, align 4
  %45 = sext i32 %44 to i64
  %46 = call noundef nonnull align 1 dereferenceable(1) ptr @_ZNKSt17basic_string_viewIcSt11char_traitsIcEEixEm(ptr noundef nonnull align 8 dereferenceable(16) %4, i64 noundef %45) #3
  %47 = load i8, ptr %46, align 1
  %48 = sext i8 %47 to i32
  %49 = call i32 @isascii(i32 noundef %48) #3
  %50 = icmp ne i32 %49, 0
  br i1 %50, label %53, label %51

51:                                               ; preds = %34
  %52 = getelementptr inbounds %"struct.pkpy::Str", ptr %9, i32 0, i32 1
  store i8 0, ptr %52, align 4
  br label %53

53:                                               ; preds = %51, %34
  br label %54

54:                                               ; preds = %53
  %55 = load i32, ptr %6, align 4
  %56 = add nsw i32 %55, 1
  store i32 %56, ptr %6, align 4
  br label %29, !llvm.loop !6

57:                                               ; preds = %29
  %58 = getelementptr inbounds %"struct.pkpy::Str", ptr %9, i32 0, i32 2
  %59 = load ptr, ptr %58, align 8
  %60 = getelementptr inbounds %"struct.pkpy::Str", ptr %9, i32 0, i32 0
  %61 = load i32, ptr %60, align 8
  %62 = sext i32 %61 to i64
  %63 = getelementptr inbounds i8, ptr %59, i64 %62
  store i8 0, ptr %63, align 1
  ret void
}