; Function Attrs: mustprogress nounwind uwtable
define void @_ZN4pkpy3StrC2ESt17basic_string_viewIcSt11char_traitsIcEE(ptr noundef nonnull align 8 dereferenceable(32) %0, i64 %1, ptr nocapture readonly %2) unnamed_addr #4 align 2 {
  %4 = trunc i64 %1 to i32
  store i32 %4, ptr %0, align 8
  %5 = getelementptr inbounds i8, ptr %0, i64 4
  store i8 1, ptr %5, align 4
  %6 = icmp slt i32 %4, 16
  br i1 %6, label %7, label %9

7:                                                ; preds = %3
  %8 = getelementptr inbounds i8, ptr %0, i64 16
  br label %13

9:                                                ; preds = %3
  %10 = add nuw nsw i64 %1, 1
  %11 = and i64 %10, 4294967295
  %12 = tail call noundef ptr @_ZN4pkpy12pool64_allocEm(i64 noundef %11) #23
  %.pre = load i32, ptr %0, align 8
  br label %13

13:                                               ; preds = %9, %7
  %14 = phi i32 [ %4, %7 ], [ %.pre, %9 ]
  %.sink = phi ptr [ %8, %7 ], [ %12, %9 ]
  %15 = getelementptr inbounds i8, ptr %0, i64 8
  store ptr %.sink, ptr %15, align 8
  %16 = icmp sgt i32 %14, 0
  br i1 %16, label %.lr.ph, label %.._crit_edge_crit_edge

.._crit_edge_crit_edge:                           ; preds = %13
  %.pre12 = sext i32 %14 to i64
  br label %._crit_edge

.lr.ph:                                           ; preds = %13, %22
  %indvars.iv = phi i64 [ %indvars.iv.next, %22 ], [ 0, %13 ]
  %17 = getelementptr inbounds i8, ptr %2, i64 %indvars.iv
  %18 = load i8, ptr %17, align 1
  %19 = load ptr, ptr %15, align 8
  %20 = getelementptr inbounds i8, ptr %19, i64 %indvars.iv
  store i8 %18, ptr %20, align 1
  %isascii = icmp sgt i8 %18, -1
  br i1 %isascii, label %22, label %21

21:                                               ; preds = %.lr.ph
  store i8 0, ptr %5, align 4
  br label %22

22:                                               ; preds = %.lr.ph, %21
  %indvars.iv.next = add nuw nsw i64 %indvars.iv, 1
  %23 = load i32, ptr %0, align 8
  %24 = sext i32 %23 to i64
  %25 = icmp slt i64 %indvars.iv.next, %24
  br i1 %25, label %.lr.ph, label %._crit_edge.loopexit, !llvm.loop !8

._crit_edge.loopexit:                             ; preds = %22
  %.pre11 = load ptr, ptr %15, align 8
  br label %._crit_edge

._crit_edge:                                      ; preds = %.._crit_edge_crit_edge, %._crit_edge.loopexit
  %.pre-phi = phi i64 [ %.pre12, %.._crit_edge_crit_edge ], [ %24, %._crit_edge.loopexit ]
  %26 = phi ptr [ %.sink, %.._crit_edge_crit_edge ], [ %.pre11, %._crit_edge.loopexit ]
  %27 = getelementptr inbounds i8, ptr %26, i64 %.pre-phi
  store i8 0, ptr %27, align 1
  ret void
}